Certificate:
    Data:
        Version: 3 (0x2)
        Serial Number: 2 (0x2)
        Signature Algorithm: sha1WithRSAEncryption
        Issuer: C=CZ, ST=Czech Republic, L=Kolin, O=Internet Widgits Pty Ltd, CN=localhost
        Validity
            Not Before: Sep  6 13:07:01 2009 GMT
            Not After : Sep  6 13:07:01 2010 GMT
        Subject: C=CZ, ST=Czech Republic, O=Internet Widgits Pty Ltd, CN=localhost
        Subject Public Key Info:
            Public Key Algorithm: rsaEncryption
            RSA Public Key: (1024 bit)
                Modulus (1024 bit):
                    00:cd:f0:ff:ba:b2:f6:f3:39:28:3d:b1:4c:f1:c7:
                    96:76:e7:fd:be:86:06:dc:b3:fa:10:3b:1a:a0:c2:
                    e9:4b:28:4a:0b:9e:67:42:cc:ad:f0:9b:4d:37:4b:
                    3a:13:5f:16:64:83:8e:b8:34:04:ab:b3:89:83:c6:
                    4c:3a:1c:12:14:b6:97:a8:fc:a4:fe:78:f3:f0:f6:
                    68:fa:08:29:3a:4b:99:2d:3d:b7:24:c1:66:9d:58:
                    18:20:3c:28:49:2c:2e:f3:5f:5c:89:88:f4:7d:b2:
                    ed:28:aa:0c:3d:eb:3e:70:30:c6:36:ae:70:cb:ee:
                    75:43:21:16:7b:6a:32:60:cf
                Exponent: 65537 (0x10001)
        X509v3 extensions:
            X509v3 Basic Constraints: 
                CA:FALSE
            Netscape Comment: 
                OpenSSL Generated Certificate
            X509v3 Subject Key Identifier: 
                21:C3:4F:20:1A:34:C3:85:B7:93:C7:89:5E:01:75:47:04:AC:8C:5E
            X509v3 Authority Key Identifier: 
                keyid:66:AF:BF:6D:DB:DC:AB:01:BF:FA:A8:81:D8:48:98:56:4B:E4:07:77

    Signature Algorithm: sha1WithRSAEncryption
        0d:97:97:de:73:09:99:bf:68:74:4a:57:99:7a:bf:ac:ad:b7:
        b1:76:94:0b:75:07:0b:c5:07:05:fe:e1:61:af:f9:9d:c1:6d:
        6b:02:cd:3b:9d:8e:9b:f8:80:7e:05:dc:e5:0a:ce:a5:f0:c8:
        24:a2:6a:a7:33:96:48:4c:ed:57:ab:af:4b:97:a5:63:a6:0c:
        b5:13:1e:37:9a:91:fd:f2:e6:ce:37:29:3d:0d:5b:08:bc:c3:
        d4:c6:bf:e7:d1:1d:1c:3c:db:c1:8b:40:b0:cc:a1:f0:eb:36:
        13:c2:71:7c:52:99:1c:bb:27:e8:64:ce:bf:5d:40:0c:82:34:
        f5:ff
-----BEGIN CERTIFICATE-----
MIICuzCCAiSgAwIBAgIBAjANBgkqhkiG9w0BAQUFADBtMQswCQYDVQQGEwJDWjEX
MBUGA1UECBMOQ3plY2ggUmVwdWJsaWMxDjAMBgNVBAcTBUtvbGluMSEwHwYDVQQK
ExhJbnRlcm5ldCBXaWRnaXRzIFB0eSBMdGQxEjAQBgNVBAMTCWxvY2FsaG9zdDAe
Fw0wOTA5MDYxMzA3MDFaFw0xMDA5MDYxMzA3MDFaMF0xCzAJBgNVBAYTAkNaMRcw
FQYDVQQIEw5DemVjaCBSZXB1YmxpYzEhMB8GA1UEChMYSW50ZXJuZXQgV2lkZ2l0
cyBQdHkgTHRkMRIwEAYDVQQDEwlsb2NhbGhvc3QwgZ8wDQYJKoZIhvcNAQEBBQAD
gY0AMIGJAoGBAM3w/7qy9vM5KD2xTPHHlnbn/b6GBtyz+hA7GqDC6UsoSgueZ0LM
rfCbTTdLOhNfFmSDjrg0BKuziYPGTDocEhS2l6j8pP548/D2aPoIKTpLmS09tyTB
Zp1YGCA8KEksLvNfXImI9H2y7SiqDD3rPnAwxjaucMvudUMhFntqMmDPAgMBAAGj
ezB5MAkGA1UdEwQCMAAwLAYJYIZIAYb4QgENBB8WHU9wZW5TU0wgR2VuZXJhdGVk
IENlcnRpZmljYXRlMB0GA1UdDgQWBBQhw08gGjTDhbeTx4leAXVHBKyMXjAfBgNV
HSMEGDAWgBRmr79t29yrAb/6qIHYSJhWS+QHdzANBgkqhkiG9w0BAQUFAAOBgQAN
l5fecwmZv2h0SleZer+srbexdpQLdQcLxQcF/uFhr/mdwW1rAs07nY6b+IB+Bdzl
Cs6l8MgkomqnM5ZITO1Xq69Ll6Vjpgy1Ex43mpH98ubONyk9DVsIvMPUxr/n0R0c
PNvBi0CwzKHw6zYTwnF8UpkcuyfoZM6/XUAMgjT1/w==
-----END CERTIFICATE-----
